Certificate:
    Data:
        Version: 1 (0x0)
        Serial Number: 3 (0x3)
        Signature Algorithm: sha1WithRSAEncryption
        Issuer: C=CA, ST=Quebec, L=Sherbrooke, O=Universite de Sherbrooke, OU=GEGI, CN=autorite/emailAddress=autorite@gegi
        Validity
            Not Before: Jan 15 21:10:17 2022 GMT
            Not After : Jan 15 21:10:17 2023 GMT
        Subject: C=CA, ST=Quebec, O=Universite de Sherbrooke, OU=GEGI, CN=localhost/emailAddress=harp2304@usherbrooke.ca
        Subject Public Key Info:
            Public Key Algorithm: rsaEncryption
                Public-Key: (2048 bit)
                Modulus:
                    00:9f:68:9a:ec:77:eb:6c:4a:fd:6d:5a:9f:be:6d:
                    cc:90:39:ac:60:c9:2e:8c:41:a8:d4:d8:da:0a:83:
                    8b:cf:59:ee:54:a0:d4:ec:f0:ce:da:86:b5:db:54:
                    b8:92:f5:2f:a1:99:98:3d:02:ff:27:0f:b2:95:52:
                    5d:2e:0a:a6:9a:0c:00:b6:2c:27:ef:88:a5:6d:f1:
                    e5:75:5b:e8:dc:2f:57:c6:e3:3e:da:c6:82:70:0e:
                    4f:ec:70:5d:ae:6b:82:51:c1:02:8b:3e:65:5b:3b:
                    a0:de:ed:d6:f5:15:d0:3a:15:21:75:45:9a:d7:8e:
                    43:f4:ba:65:21:29:64:f5:e5:a4:cf:30:4d:0d:5e:
                    f6:53:28:38:19:38:c0:a1:16:55:37:37:5e:02:76:
                    e8:53:52:e1:68:ef:cf:ec:c8:ab:c1:0d:25:1d:9c:
                    ff:c5:4b:eb:14:32:15:df:97:be:b1:03:16:21:04:
                    97:34:10:8a:13:c9:d5:97:14:2b:ee:41:00:f6:ea:
                    05:81:6a:66:9f:d3:11:f6:be:48:d4:d5:f8:95:54:
                    95:57:9c:e0:14:cb:64:60:3b:21:c8:1e:01:69:e8:
                    aa:d2:ee:3a:15:16:bf:7a:3f:10:49:24:31:07:a1:
                    e8:9d:d4:3b:6f:5d:a7:19:db:5e:a2:f4:49:ad:08:
                    a5:41
                Exponent: 65537 (0x10001)
    Signature Algorithm: sha1WithRSAEncryption
    Signature Value:
        42:b2:97:d8:03:f1:4b:69:92:d1:db:3c:1c:6e:1d:26:83:94:
        bb:97:1e:29:2b:6d:66:06:ba:19:c8:a8:36:ef:80:4f:61:0e:
        b0:9a:e2:38:cb:40:43:18:11:55:41:1b:f6:02:85:87:8b:8c:
        ad:5e:f4:12:77:08:6d:54:10:cc:8a:5e:a2:47:0e:b4:ee:18:
        ad:ec:5e:a7:27:69:d3:fe:42:c7:98:f3:f8:a1:8b:66:49:ed:
        d0:89:91:f6:1b:15:90:69:b9:d4:6f:b6:d0:aa:85:2a:ea:e9:
        cc:f7:15:a9:84:e2:94:00:ae:c7:2a:dc:48:12:43:20:c4:3d:
        3d:17:76:3f:d8:e2:70:38:38:9f:80:df:9b:9c:65:75:ef:2a:
        fe:86:82:36:02:34:0e:bf:3a:7b:33:48:7b:9e:05:41:77:f1:
        13:50:8f:e5:31:56:87:d1:66:53:7d:2f:41:7b:03:68:0c:a6:
        d0:81:da:b4:e2:56:72:4e:34:6e:37:d7:cd:9d:4f:d8:da:b8:
        1a:02:42:5f:85:97:7c:a8:48:e8:aa:82:f3:31:b3:65:7a:55:
        ac:25:b9:c6:da:81:3f:c2:0b:53:d7:12:10:39:5e:fd:f4:12:
        f5:cb:24:20:cc:5c:7d:b2:e9:96:99:4e:c5:cb:0d:d0:57:8b:
        84:51:ab:d1
-----BEGIN CERTIFICATE-----
MIIDmDCCAoACAQMwDQYJKoZIhvcNAQEFBQAwgZYxCzAJBgNVBAYTAkNBMQ8wDQYD
VQQIDAZRdWViZWMxEzARBgNVBAcMClNoZXJicm9va2UxITAfBgNVBAoMGFVuaXZl
cnNpdGUgZGUgU2hlcmJyb29rZTENMAsGA1UECwwER0VHSTERMA8GA1UEAwwIYXV0
b3JpdGUxHDAaBgkqhkiG9w0BCQEWDWF1dG9yaXRlQGdlZ2kwHhcNMjIwMTE1MjEx
MDE3WhcNMjMwMTE1MjExMDE3WjCBjDELMAkGA1UEBhMCQ0ExDzANBgNVBAgMBlF1
ZWJlYzEhMB8GA1UECgwYVW5pdmVyc2l0ZSBkZSBTaGVyYnJvb2tlMQ0wCwYDVQQL
DARHRUdJMRIwEAYDVQQDDAlsb2NhbGhvc3QxJjAkBgkqhkiG9w0BCQEWF2hhcnAy
MzA0QHVzaGVyYnJvb2tlLmNhMIIBIjANBgkqhkiG9w0BAQEFAAOCAQ8AMIIBCgKC
AQEAn2ia7HfrbEr9bVqfvm3MkDmsYMkujEGo1NjaCoOLz1nuVKDU7PDO2oa121S4
kvUvoZmYPQL/Jw+ylVJdLgqmmgwAtiwn74ilbfHldVvo3C9XxuM+2saCcA5P7HBd
rmuCUcECiz5lWzug3u3W9RXQOhUhdUWa145D9LplISlk9eWkzzBNDV72Uyg4GTjA
oRZVNzdeAnboU1LhaO/P7MirwQ0lHZz/xUvrFDIV35e+sQMWIQSXNBCKE8nVlxQr
7kEA9uoFgWpmn9MR9r5I1NX4lVSVV5zgFMtkYDshyB4Baeiq0u46FRa/ej8QSSQx
B6HondQ7b12nGdteovRJrQilQQIDAQABMA0GCSqGSIb3DQEBBQUAA4IBAQBCspfY
A/FLaZLR2zwcbh0mg5S7lx4pK21mBroZyKg274BPYQ6wmuI4y0BDGBFVQRv2AoWH
i4ytXvQSdwhtVBDMil6iRw607hit7F6nJ2nT/kLHmPP4oYtmSe3QiZH2GxWQabnU
b7bQqoUq6unM9xWphOKUAK7HKtxIEkMgxD09F3Y/2OJwODifgN+bnGV17yr+hoI2
AjQOvzp7M0h7ngVBd/ETUI/lMVaH0WZTfS9BewNoDKbQgdq04lZyTjRuN9fNnU/Y
2rgaAkJfhZd8qEjoqoLzMbNlelWsJbnG2oE/wgtT1xIQOV799BL1yyQgzFx9sumW
mU7Fyw3QV4uEUavR
-----END CERTIFICATE-----
