Certificate:
    Data:
        Version: 1 (0x0)
        Serial Number: 4 (0x4)
        Signature Algorithm: sha1WithRSAEncryption
        Issuer: C=CA, ST=Quebec, L=Sherbrooke, O=Universite de Sherbrooke, OU=GEGI, CN=autorite/emailAddress=autorite@gegi
        Validity
            Not Before: Jan 15 22:01:51 2022 GMT
            Not After : Jan 15 22:01:51 2023 GMT
        Subject: C=CA, ST=Quebec, O=Universite de Sherbrooke, OU=GEGI, CN=localhost/emailAddress=brop2703@usherbrooke.ca
        Subject Public Key Info:
            Public Key Algorithm: rsaEncryption
                Public-Key: (2048 bit)
                Modulus:
                    00:8f:6a:8f:b0:e1:3e:81:90:dd:4c:91:36:74:6b:
                    78:16:8f:61:12:2c:f5:9c:2b:46:d6:fa:10:84:7e:
                    86:1f:c1:d1:09:d8:32:0f:81:15:19:67:fe:6c:b6:
                    97:75:b8:ed:e8:af:a9:9d:13:3b:e8:13:47:15:7b:
                    a5:16:da:8c:c6:63:02:4a:f8:47:cb:fd:ed:aa:d6:
                    18:8c:98:8e:e7:8e:90:cc:49:f8:5f:f0:24:4b:f3:
                    2c:35:c7:36:b8:09:d8:3e:84:af:0a:5a:33:9b:46:
                    2b:1a:b4:78:d6:3c:0d:0f:13:c7:fa:ef:47:59:15:
                    4a:de:97:f7:b6:12:30:20:53:0f:d8:bd:54:c2:0c:
                    ff:73:e8:c7:27:99:8c:b7:1d:1a:02:79:0a:bf:40:
                    22:3a:78:ec:fd:f2:6e:f1:21:71:c7:3f:a8:34:16:
                    a6:a2:23:3f:de:f8:fe:fc:3a:22:19:1c:df:64:b1:
                    a8:a6:a8:2f:f9:b4:66:33:25:0e:3b:7c:b5:07:06:
                    00:a0:2d:99:76:c5:a3:6f:41:55:39:22:11:2f:9a:
                    23:59:3e:bc:d0:92:97:01:a8:cc:f1:1d:a7:4a:3d:
                    85:a3:ac:99:31:3c:82:35:8c:99:ae:95:c0:86:5b:
                    9d:72:0c:9a:91:eb:99:af:26:58:8c:ff:1c:5e:e7:
                    c4:65
                Exponent: 65537 (0x10001)
    Signature Algorithm: sha1WithRSAEncryption
    Signature Value:
        82:64:c9:81:00:f1:4d:9e:4c:a0:06:e9:47:f8:05:2f:7a:c1:
        bc:c4:4f:01:62:48:60:14:d5:22:d0:cd:f7:b9:44:67:2b:77:
        cc:5e:36:26:ad:86:0d:51:eb:e4:28:49:ba:32:93:02:d8:32:
        97:06:fc:10:b4:2c:ad:93:cc:04:a4:60:7c:ab:38:5e:e2:14:
        4b:d9:4f:b1:8f:98:9e:bb:61:99:f5:10:62:d4:8e:ce:fb:5a:
        9a:1a:a8:a6:75:75:19:29:81:89:24:ac:ac:32:8e:b9:ca:49:
        60:26:14:21:c2:e6:f7:5c:d8:4a:0a:a2:bf:a9:ef:ef:04:05:
        1d:50:99:34:02:8f:e6:ff:09:ed:d2:57:19:66:71:70:aa:81:
        dc:0c:d1:f7:6c:80:27:97:4f:c0:04:25:dc:2c:63:1f:cf:2c:
        7f:4b:83:ab:44:79:c1:05:4c:a7:6d:0c:3e:2f:9c:32:ac:00:
        5f:11:61:5c:cf:97:5e:93:31:e1:0f:98:64:54:fa:c6:a7:49:
        b0:52:bc:47:9d:d9:d7:ee:a2:23:52:5e:11:15:6c:d9:d2:2b:
        61:4c:25:2e:71:7c:31:1b:a0:50:b9:78:c4:d5:1e:5f:63:80:
        38:68:cb:5f:6b:b7:ef:cd:3d:dd:de:0b:ab:37:a2:fd:6d:14:
        05:a8:dc:b2
-----BEGIN CERTIFICATE-----
MIIDmDCCAoACAQQwDQYJKoZIhvcNAQEFBQAwgZYxCzAJBgNVBAYTAkNBMQ8wDQYD
VQQIDAZRdWViZWMxEzARBgNVBAcMClNoZXJicm9va2UxITAfBgNVBAoMGFVuaXZl
cnNpdGUgZGUgU2hlcmJyb29rZTENMAsGA1UECwwER0VHSTERMA8GA1UEAwwIYXV0
b3JpdGUxHDAaBgkqhkiG9w0BCQEWDWF1dG9yaXRlQGdlZ2kwHhcNMjIwMTE1MjIw
MTUxWhcNMjMwMTE1MjIwMTUxWjCBjDELMAkGA1UEBhMCQ0ExDzANBgNVBAgMBlF1
ZWJlYzEhMB8GA1UECgwYVW5pdmVyc2l0ZSBkZSBTaGVyYnJvb2tlMQ0wCwYDVQQL
DARHRUdJMRIwEAYDVQQDDAlsb2NhbGhvc3QxJjAkBgkqhkiG9w0BCQEWF2Jyb3Ay
NzAzQHVzaGVyYnJvb2tlLmNhMIIBIjANBgkqhkiG9w0BAQEFAAOCAQ8AMIIBCgKC
AQEAj2qPsOE+gZDdTJE2dGt4Fo9hEiz1nCtG1voQhH6GH8HRCdgyD4EVGWf+bLaX
dbjt6K+pnRM76BNHFXulFtqMxmMCSvhHy/3tqtYYjJiO546QzEn4X/AkS/MsNcc2
uAnYPoSvClozm0YrGrR41jwNDxPH+u9HWRVK3pf3thIwIFMP2L1Uwgz/c+jHJ5mM
tx0aAnkKv0AiOnjs/fJu8SFxxz+oNBamoiM/3vj+/DoiGRzfZLGopqgv+bRmMyUO
O3y1BwYAoC2ZdsWjb0FVOSIRL5ojWT680JKXAajM8R2nSj2Fo6yZMTyCNYyZrpXA
hludcgyakeuZryZYjP8cXufEZQIDAQABMA0GCSqGSIb3DQEBBQUAA4IBAQCCZMmB
APFNnkygBulH+AUvesG8xE8BYkhgFNUi0M33uURnK3fMXjYmrYYNUevkKEm6MpMC
2DKXBvwQtCytk8wEpGB8qzhe4hRL2U+xj5ieu2GZ9RBi1I7O+1qaGqimdXUZKYGJ
JKysMo65yklgJhQhwub3XNhKCqK/qe/vBAUdUJk0Ao/m/wnt0lcZZnFwqoHcDNH3
bIAnl0/ABCXcLGMfzyx/S4OrRHnBBUynbQw+L5wyrABfEWFcz5dekzHhD5hkVPrG
p0mwUrxHndnX7qIjUl4RFWzZ0ithTCUucXwxG6BQuXjE1R5fY4A4aMtfa7fvzT3d
3gurN6L9bRQFqNyy
-----END CERTIFICATE-----
